; Function Attrs: mustprogress uwtable
define void @_ZNK6icu_778numparse4impl22MultiplierParseHandler11postProcessERNS1_12ParsedNumberE(ptr noundef nonnull align 8 dereferenceable(32) %0, ptr noundef nonnull align 8 dereferenceable(216) %1) unnamed_addr #1 align 2 {
  %3 = getelementptr inbounds nuw i8, ptr %1, i64 8
  %4 = load i8, ptr %3, align 8, !tbaa !26, !range !24, !noundef !25
  %5 = trunc nuw i8 %4 to i1
  br i1 %5, label %8, label %6

6:                                                ; preds = %2
  %7 = getelementptr inbounds nuw i8, ptr %0, i64 8
  tail call void @_ZNK6icu_776number5Scale17applyReciprocalToERNS0_4impl15DecimalQuantityE(ptr noundef nonnull align 8 dereferenceable(20) %7, ptr noundef nonnull align 8 dereferenceable(66) %1)
  br label %8

8:                                                ; preds = %6, %2
  ret void
}